target datalayout = "e-m:e-p270:32:32-p271:32:32-p272:64:64-i64:64-i128:128-f80:128-n8:16:32:64-S128"
target triple = "x86_64-pc-linux-gnu"

; Function Attrs: nounwind uwtable
define internal void @fe_invert(ptr noundef %0, ptr noundef %1) #0 {
  %3 = alloca ptr, align 8
  %4 = alloca ptr, align 8
  %5 = alloca [10 x i32], align 16
  %6 = alloca [10 x i32], align 16
  %7 = alloca [10 x i32], align 16
  %8 = alloca [10 x i32], align 16
  %9 = alloca i32, align 4
  store ptr %0, ptr %3, align 8, !tbaa !26
  store ptr %1, ptr %4, align 8, !tbaa !26
  call void @llvm.lifetime.start.p0(i64 40, ptr %5) #6
  call void @llvm.lifetime.start.p0(i64 40, ptr %6) #6
  call void @llvm.lifetime.start.p0(i64 40, ptr %7) #6
  call void @llvm.lifetime.start.p0(i64 40, ptr %8) #6
  call void @llvm.lifetime.start.p0(i64 4, ptr %9) #6
  %10 = getelementptr inbounds [10 x i32], ptr %5, i64 0, i64 0
  %11 = load ptr, ptr %4, align 8, !tbaa !26
  call void @fe_sq(ptr noundef %10, ptr noundef %11)
  %12 = getelementptr inbounds [10 x i32], ptr %6, i64 0, i64 0
  %13 = getelementptr inbounds [10 x i32], ptr %5, i64 0, i64 0
  call void @fe_sq(ptr noundef %12, ptr noundef %13)
  %14 = getelementptr inbounds [10 x i32], ptr %6, i64 0, i64 0
  %15 = getelementptr inbounds [10 x i32], ptr %6, i64 0, i64 0
  call void @fe_sq(ptr noundef %14, ptr noundef %15)
  %16 = getelementptr inbounds [10 x i32], ptr %6, i64 0, i64 0
  %17 = load ptr, ptr %4, align 8, !tbaa !26
  %18 = getelementptr inbounds [10 x i32], ptr %6, i64 0, i64 0
  call void @fe_mul(ptr noundef %16, ptr noundef %17, ptr noundef %18)
  %19 = getelementptr inbounds [10 x i32], ptr %5, i64 0, i64 0
  %20 = getelementptr inbounds [10 x i32], ptr %5, i64 0, i64 0
  %21 = getelementptr inbounds [10 x i32], ptr %6, i64 0, i64 0
  call void @fe_mul(ptr noundef %19, ptr noundef %20, ptr noundef %21)
  %22 = getelementptr inbounds [10 x i32], ptr %7, i64 0, i64 0
  %23 = getelementptr inbounds [10 x i32], ptr %5, i64 0, i64 0
  call void @fe_sq(ptr noundef %22, ptr noundef %23)
  %24 = getelementptr inbounds [10 x i32], ptr %6, i64 0, i64 0
  %25 = getelementptr inbounds [10 x i32], ptr %6, i64 0, i64 0
  %26 = getelementptr inbounds [10 x i32], ptr %7, i64 0, i64 0
  call void @fe_mul(ptr noundef %24, ptr noundef %25, ptr noundef %26)
  %27 = getelementptr inbounds [10 x i32], ptr %7, i64 0, i64 0
  %28 = getelementptr inbounds [10 x i32], ptr %6, i64 0, i64 0
  call void @fe_sq(ptr noundef %27, ptr noundef %28)
  store i32 1, ptr %9, align 4, !tbaa !17
  br label %29

29:                                               ; preds = %35, %2
  %30 = load i32, ptr %9, align 4, !tbaa !17
  %31 = icmp slt i32 %30, 5
  br i1 %31, label %32, label %38

32:                                               ; preds = %29
  %33 = getelementptr inbounds [10 x i32], ptr %7, i64 0, i64 0
  %34 = getelementptr inbounds [10 x i32], ptr %7, i64 0, i64 0
  call void @fe_sq(ptr noundef %33, ptr noundef %34)
  br label %35

35:                                               ; preds = %32
  %36 = load i32, ptr %9, align 4, !tbaa !17
  %37 = add nsw i32 %36, 1
  store i32 %37, ptr %9, align 4, !tbaa !17
  br label %29, !llvm.loop !34

38:                                               ; preds = %29
  %39 = getelementptr inbounds [10 x i32], ptr %6, i64 0, i64 0
  %40 = getelementptr inbounds [10 x i32], ptr %7, i64 0, i64 0
  %41 = getelementptr inbounds [10 x i32], ptr %6, i64 0, i64 0
  call void @fe_mul(ptr noundef %39, ptr noundef %40, ptr noundef %41)
  %42 = getelementptr inbounds [10 x i32], ptr %7, i64 0, i64 0
  %43 = getelementptr inbounds [10 x i32], ptr %6, i64 0, i64 0
  call void @fe_sq(ptr noundef %42, ptr noundef %43)
  store i32 1, ptr %9, align 4, !tbaa !17
  br label %44

44:                                               ; preds = %50, %38
  %45 = load i32, ptr %9, align 4, !tbaa !17
  %46 = icmp slt i32 %45, 10
  br i1 %46, label %47, label %53

47:                                               ; preds = %44
  %48 = getelementptr inbounds [10 x i32], ptr %7, i64 0, i64 0
  %49 = getelementptr inbounds [10 x i32], ptr %7, i64 0, i64 0
  call void @fe_sq(ptr noundef %48, ptr noundef %49)
  br label %50

50:                                               ; preds = %47
  %51 = load i32, ptr %9, align 4, !tbaa !17
  %52 = add nsw i32 %51, 1
  store i32 %52, ptr %9, align 4, !tbaa !17
  br label %44, !llvm.loop !35

53:                                               ; preds = %44
  %54 = getelementptr inbounds [10 x i32], ptr %7, i64 0, i64 0
  %55 = getelementptr inbounds [10 x i32], ptr %7, i64 0, i64 0
  %56 = getelementptr inbounds [10 x i32], ptr %6, i64 0, i64 0
  call void @fe_mul(ptr noundef %54, ptr noundef %55, ptr noundef %56)
  %57 = getelementptr inbounds [10 x i32], ptr %8, i64 0, i64 0
  %58 = getelementptr inbounds [10 x i32], ptr %7, i64 0, i64 0
  call void @fe_sq(ptr noundef %57, ptr noundef %58)
  store i32 1, ptr %9, align 4, !tbaa !17
  br label %59

59:                                               ; preds = %65, %53
  %60 = load i32, ptr %9, align 4, !tbaa !17
  %61 = icmp slt i32 %60, 20
  br i1 %61, label %62, label %68

62:                                               ; preds = %59
  %63 = getelementptr inbounds [10 x i32], ptr %8, i64 0, i64 0
  %64 = getelementptr inbounds [10 x i32], ptr %8, i64 0, i64 0
  call void @fe_sq(ptr noundef %63, ptr noundef %64)
  br label %65

65:                                               ; preds = %62
  %66 = load i32, ptr %9, align 4, !tbaa !17
  %67 = add nsw i32 %66, 1
  store i32 %67, ptr %9, align 4, !tbaa !17
  br label %59, !llvm.loop !36

68:                                               ; preds = %59
  %69 = getelementptr inbounds [10 x i32], ptr %7, i64 0, i64 0
  %70 = getelementptr inbounds [10 x i32], ptr %8, i64 0, i64 0
  %71 = getelementptr inbounds [10 x i32], ptr %7, i64 0, i64 0
  call void @fe_mul(ptr noundef %69, ptr noundef %70, ptr noundef %71)
  store i32 0, ptr %9, align 4, !tbaa !17
  br label %72

72:                                               ; preds = %78, %68
  %73 = load i32, ptr %9, align 4, !tbaa !17
  %74 = icmp slt i32 %73, 10
  br i1 %74, label %75, label %81

75:                                               ; preds = %72
  %76 = getelementptr inbounds [10 x i32], ptr %7, i64 0, i64 0
  %77 = getelementptr inbounds [10 x i32], ptr %7, i64 0, i64 0
  call void @fe_sq(ptr noundef %76, ptr noundef %77)
  br label %78

78:                                               ; preds = %75
  %79 = load i32, ptr %9, align 4, !tbaa !17
  %80 = add nsw i32 %79, 1
  store i32 %80, ptr %9, align 4, !tbaa !17
  br label %72, !llvm.loop !37

81:                                               ; preds = %72
  %82 = getelementptr inbounds [10 x i32], ptr %6, i64 0, i64 0
  %83 = getelementptr inbounds [10 x i32], ptr %7, i64 0, i64 0
  %84 = getelementptr inbounds [10 x i32], ptr %6, i64 0, i64 0
  call void @fe_mul(ptr noundef %82, ptr noundef %83, ptr noundef %84)
  %85 = getelementptr inbounds [10 x i32], ptr %7, i64 0, i64 0
  %86 = getelementptr inbounds [10 x i32], ptr %6, i64 0, i64 0
  call void @fe_sq(ptr noundef %85, ptr noundef %86)
  store i32 1, ptr %9, align 4, !tbaa !17
  br label %87

87:                                               ; preds = %93, %81
  %88 = load i32, ptr %9, align 4, !tbaa !17
  %89 = icmp slt i32 %88, 50
  br i1 %89, label %90, label %96

90:                                               ; preds = %87
  %91 = getelementptr inbounds [10 x i32], ptr %7, i64 0, i64 0
  %92 = getelementptr inbounds [10 x i32], ptr %7, i64 0, i64 0
  call void @fe_sq(ptr noundef %91, ptr noundef %92)
  br label %93

93:                                               ; preds = %90
  %94 = load i32, ptr %9, align 4, !tbaa !17
  %95 = add nsw i32 %94, 1
  store i32 %95, ptr %9, align 4, !tbaa !17
  br label %87, !llvm.loop !38

96:                                               ; preds = %87
  %97 = getelementptr inbounds [10 x i32], ptr %7, i64 0, i64 0
  %98 = getelementptr inbounds [10 x i32], ptr %7, i64 0, i64 0
  %99 = getelementptr inbounds [10 x i32], ptr %6, i64 0, i64 0
  call void @fe_mul(ptr noundef %97, ptr noundef %98, ptr noundef %99)
  %100 = getelementptr inbounds [10 x i32], ptr %8, i64 0, i64 0
  %101 = getelementptr inbounds [10 x i32], ptr %7, i64 0, i64 0
  call void @fe_sq(ptr noundef %100, ptr noundef %101)
  store i32 1, ptr %9, align 4, !tbaa !17
  br label %102

102:                                              ; preds = %108, %96
  %103 = load i32, ptr %9, align 4, !tbaa !17
  %104 = icmp slt i32 %103, 100
  br i1 %104, label %105, label %111

105:                                              ; preds = %102
  %106 = getelementptr inbounds [10 x i32], ptr %8, i64 0, i64 0
  %107 = getelementptr inbounds [10 x i32], ptr %8, i64 0, i64 0
  call void @fe_sq(ptr noundef %106, ptr noundef %107)
  br label %108

108:                                              ; preds = %105
  %109 = load i32, ptr %9, align 4, !tbaa !17
  %110 = add nsw i32 %109, 1
  store i32 %110, ptr %9, align 4, !tbaa !17
  br label %102, !llvm.loop !39

111:                                              ; preds = %102
  %112 = getelementptr inbounds [10 x i32], ptr %7, i64 0, i64 0
  %113 = getelementptr inbounds [10 x i32], ptr %8, i64 0, i64 0
  %114 = getelementptr inbounds [10 x i32], ptr %7, i64 0, i64 0
  call void @fe_mul(ptr noundef %112, ptr noundef %113, ptr noundef %114)
  %115 = getelementptr inbounds [10 x i32], ptr %7, i64 0, i64 0
  %116 = getelementptr inbounds [10 x i32], ptr %7, i64 0, i64 0
  call void @fe_sq(ptr noundef %115, ptr noundef %116)
  store i32 1, ptr %9, align 4, !tbaa !17
  br label %117

117:                                              ; preds = %123, %111
  %118 = load i32, ptr %9, align 4, !tbaa !17
  %119 = icmp slt i32 %118, 50
  br i1 %119, label %120, label %126

120:                                              ; preds = %117
  %121 = getelementptr inbounds [10 x i32], ptr %7, i64 0, i64 0
  %122 = getelementptr inbounds [10 x i32], ptr %7, i64 0, i64 0
  call void @fe_sq(ptr noundef %121, ptr noundef %122)
  br label %123

123:                                              ; preds = %120
  %124 = load i32, ptr %9, align 4, !tbaa !17
  %125 = add nsw i32 %124, 1
  store i32 %125, ptr %9, align 4, !tbaa !17
  br label %117, !llvm.loop !40

126:                                              ; preds = %117
  %127 = getelementptr inbounds [10 x i32], ptr %6, i64 0, i64 0
  %128 = getelementptr inbounds [10 x i32], ptr %7, i64 0, i64 0
  %129 = getelementptr inbounds [10 x i32], ptr %6, i64 0, i64 0
  call void @fe_mul(ptr noundef %127, ptr noundef %128, ptr noundef %129)
  %130 = getelementptr inbounds [10 x i32], ptr %6, i64 0, i64 0
  %131 = getelementptr inbounds [10 x i32], ptr %6, i64 0, i64 0
  call void @fe_sq(ptr noundef %130, ptr noundef %131)
  store i32 1, ptr %9, align 4, !tbaa !17
  br label %132

132:                                              ; preds = %138, %126
  %133 = load i32, ptr %9, align 4, !tbaa !17
  %134 = icmp slt i32 %133, 5
  br i1 %134, label %135, label %141

135:                                              ; preds = %132
  %136 = getelementptr inbounds [10 x i32], ptr %6, i64 0, i64 0
  %137 = getelementptr inbounds [10 x i32], ptr %6, i64 0, i64 0
  call void @fe_sq(ptr noundef %136, ptr noundef %137)
  br label %138

138:                                              ; preds = %135
  %139 = load i32, ptr %9, align 4, !tbaa !17
  %140 = add nsw i32 %139, 1
  store i32 %140, ptr %9, align 4, !tbaa !17
  br label %132, !llvm.loop !41

141:                                              ; preds = %132
  %142 = load ptr, ptr %3, align 8, !tbaa !26
  %143 = getelementptr inbounds [10 x i32], ptr %6, i64 0, i64 0
  %144 = getelementptr inbounds [10 x i32], ptr %5, i64 0, i64 0
  call void @fe_mul(ptr noundef %142, ptr noundef %143, ptr noundef %144)
  call void @llvm.lifetime.end.p0(i64 4, ptr %9) #6
  call void @llvm.lifetime.end.p0(i64 40, ptr %8) #6
  call void @llvm.lifetime.end.p0(i64 40, ptr %7) #6
  call void @llvm.lifetime.end.p0(i64 40, ptr %6) #6
  call void @llvm.lifetime.end.p0(i64 40, ptr %5) #6
  ret void
}