; Function Attrs: nofree norecurse nosync nounwind memory(argmem: readwrite) uwtable
define internal fastcc void @fe_invert(ptr noundef nonnull writeonly captures(none) %0, ptr noundef nonnull readonly captures(none) %1) unnamed_addr #4 {
  %3 = alloca [10 x i32], align 16
  %4 = alloca [10 x i32], align 16
  %5 = alloca [10 x i32], align 16
  %6 = alloca [10 x i32], align 16
  call void @llvm.lifetime.start.p0(i64 40, ptr nonnull %3) #9
  call void @llvm.lifetime.start.p0(i64 40, ptr nonnull %4) #9
  call void @llvm.lifetime.start.p0(i64 40, ptr nonnull %5) #9
  call void @llvm.lifetime.start.p0(i64 40, ptr nonnull %6) #9
  call fastcc void @fe_sq(ptr noundef %3, ptr noundef %1)
  call fastcc void @fe_sq(ptr noundef %4, ptr noundef %3)
  call fastcc void @fe_sq(ptr noundef %4, ptr noundef %4)
  call fastcc void @fe_mul(ptr noundef %4, ptr noundef nonnull %1, ptr noundef nonnull %4)
  call fastcc void @fe_mul(ptr noundef %3, ptr noundef nonnull %3, ptr noundef nonnull %4)
  call fastcc void @fe_sq(ptr noundef %5, ptr noundef %3)
  call fastcc void @fe_mul(ptr noundef %4, ptr noundef nonnull %4, ptr noundef nonnull %5)
  call fastcc void @fe_sq(ptr noundef %5, ptr noundef %4)
  br label %7

7:                                                ; preds = %2, %7
  %.018 = phi i32 [ 1, %2 ], [ %8, %7 ]
  call fastcc void @fe_sq(ptr noundef %5, ptr noundef %5)
  %8 = add nuw nsw i32 %.018, 1
  %exitcond.not = icmp eq i32 %8, 5
  br i1 %exitcond.not, label %9, label %7, !llvm.loop !52

9:                                                ; preds = %7
  call fastcc void @fe_mul(ptr noundef %4, ptr noundef nonnull %5, ptr noundef nonnull %4)
  call fastcc void @fe_sq(ptr noundef %5, ptr noundef %4)
  br label %10

10:                                               ; preds = %9, %10
  %.119 = phi i32 [ 1, %9 ], [ %11, %10 ]
  call fastcc void @fe_sq(ptr noundef %5, ptr noundef %5)
  %11 = add nuw nsw i32 %.119, 1
  %exitcond26.not = icmp eq i32 %11, 10
  br i1 %exitcond26.not, label %12, label %10, !llvm.loop !53

12:                                               ; preds = %10
  call fastcc void @fe_mul(ptr noundef %5, ptr noundef nonnull %5, ptr noundef nonnull %4)
  call fastcc void @fe_sq(ptr noundef %6, ptr noundef %5)
  br label %13

13:                                               ; preds = %12, %13
  %.220 = phi i32 [ 1, %12 ], [ %14, %13 ]
  call fastcc void @fe_sq(ptr noundef %6, ptr noundef %6)
  %14 = add nuw nsw i32 %.220, 1
  %exitcond27.not = icmp eq i32 %14, 20
  br i1 %exitcond27.not, label %15, label %13, !llvm.loop !54

15:                                               ; preds = %13
  call fastcc void @fe_mul(ptr noundef %5, ptr noundef nonnull %6, ptr noundef nonnull %5)
  br label %16

16:                                               ; preds = %15, %16
  %.321 = phi i32 [ 0, %15 ], [ %17, %16 ]
  call fastcc void @fe_sq(ptr noundef %5, ptr noundef %5)
  %17 = add nuw nsw i32 %.321, 1
  %exitcond28.not = icmp eq i32 %17, 10
  br i1 %exitcond28.not, label %18, label %16, !llvm.loop !55

18:                                               ; preds = %16
  call fastcc void @fe_mul(ptr noundef %4, ptr noundef nonnull %5, ptr noundef nonnull %4)
  call fastcc void @fe_sq(ptr noundef %5, ptr noundef %4)
  br label %19

19:                                               ; preds = %18, %19
  %.422 = phi i32 [ 1, %18 ], [ %20, %19 ]
  call fastcc void @fe_sq(ptr noundef %5, ptr noundef %5)
  %20 = add nuw nsw i32 %.422, 1
  %exitcond29.not = icmp eq i32 %20, 50
  br i1 %exitcond29.not, label %21, label %19, !llvm.loop !56

21:                                               ; preds = %19
  call fastcc void @fe_mul(ptr noundef %5, ptr noundef nonnull %5, ptr noundef nonnull %4)
  call fastcc void @fe_sq(ptr noundef %6, ptr noundef %5)
  br label %22

22:                                               ; preds = %21, %22
  %.523 = phi i32 [ 1, %21 ], [ %23, %22 ]
  call fastcc void @fe_sq(ptr noundef %6, ptr noundef %6)
  %23 = add nuw nsw i32 %.523, 1
  %exitcond30.not = icmp eq i32 %23, 100
  br i1 %exitcond30.not, label %24, label %22, !llvm.loop !57

24:                                               ; preds = %22
  call fastcc void @fe_mul(ptr noundef %5, ptr noundef nonnull %6, ptr noundef nonnull %5)
  call fastcc void @fe_sq(ptr noundef %5, ptr noundef %5)
  br label %25

25:                                               ; preds = %24, %25
  %.624 = phi i32 [ 1, %24 ], [ %26, %25 ]
  call fastcc void @fe_sq(ptr noundef %5, ptr noundef %5)
  %26 = add nuw nsw i32 %.624, 1
  %exitcond31.not = icmp eq i32 %26, 50
  br i1 %exitcond31.not, label %27, label %25, !llvm.loop !58

27:                                               ; preds = %25
  call fastcc void @fe_mul(ptr noundef %4, ptr noundef nonnull %5, ptr noundef nonnull %4)
  call fastcc void @fe_sq(ptr noundef %4, ptr noundef %4)
  br label %28

28:                                               ; preds = %27, %28
  %.725 = phi i32 [ 1, %27 ], [ %29, %28 ]
  call fastcc void @fe_sq(ptr noundef %4, ptr noundef %4)
  %29 = add nuw nsw i32 %.725, 1
  %exitcond32.not = icmp eq i32 %29, 5
  br i1 %exitcond32.not, label %30, label %28, !llvm.loop !59

30:                                               ; preds = %28
  call fastcc void @fe_mul(ptr noundef %0, ptr noundef nonnull %4, ptr noundef nonnull %3)
  call void @llvm.lifetime.end.p0(i64 40, ptr nonnull %6) #9
  call void @llvm.lifetime.end.p0(i64 40, ptr nonnull %5) #9
  call void @llvm.lifetime.end.p0(i64 40, ptr nonnull %4) #9
  call void @llvm.lifetime.end.p0(i64 40, ptr nonnull %3) #9
  ret void
}